; ModuleID = 'source-C-CXX/24/1381.cpp'
source_filename = "source-C-CXX/24/1381.cpp"
target datalayout = "e-m:e-p270:32:32-p271:32:32-p272:64:64-i64:64-f80:128-n8:16:32:64-S128"
target triple = "x86_64-pc-linux-gnu"

%"class.std::ios_base::Init" = type { i8 }
%"class.std::basic_istream" = type { i32 (...)**, i64, %"class.std::basic_ios" }
%"class.std::basic_ios" = type { %"class.std::ios_base", %"class.std::basic_ostream"*, i8, i8, %"class.std::basic_streambuf"*, %"class.std::ctype"*, %"class.std::num_put"*, %"class.std::num_get"* }
%"class.std::ios_base" = type { i32 (...)**, i64, i64, i32, i32, i32, %"struct.std::ios_base::_Callback_list"*, %"struct.std::ios_base::_Words", [8 x %"struct.std::ios_base::_Words"], i32, %"struct.std::ios_base::_Words"*, %"class.std::locale" }
%"struct.std::ios_base::_Callback_list" = type { %"struct.std::ios_base::_Callback_list"*, void (i32, %"class.std::ios_base"*, i32)*, i32, i32 }
%"struct.std::ios_base::_Words" = type { i8*, i64 }
%"class.std::locale" = type { %"class.std::locale::_Impl"* }
%"class.std::locale::_Impl" = type { i32, %"class.std::locale::facet"**, i64, %"class.std::locale::facet"**, i8** }
%"class.std::locale::facet" = type <{ i32 (...)**, i32, [4 x i8] }>
%"class.std::basic_ostream" = type { i32 (...)**, %"class.std::basic_ios" }
%"class.std::basic_streambuf" = type { i32 (...)**, i8*, i8*, i8*, i8*, i8*, i8*, %"class.std::locale" }
%"class.std::ctype" = type <{ %"class.std::locale::facet.base", [4 x i8], %struct.__locale_struct*, i8, [7 x i8], i32*, i32*, i16*, i8, [256 x i8], [256 x i8], i8, [6 x i8] }>
%"class.std::locale::facet.base" = type <{ i32 (...)**, i32 }>
%struct.__locale_struct = type { [13 x %struct.__locale_data*], i16*, i32*, i32*, [13 x i8*] }
%struct.__locale_data = type opaque
%"class.std::num_put" = type { %"class.std::locale::facet.base", [4 x i8] }
%"class.std::num_get" = type { %"class.std::locale::facet.base", [4 x i8] }

@_ZStL8__ioinit = internal global %"class.std::ios_base::Init" zeroinitializer, align 1
@__dso_handle = external hidden global i8
@_ZSt3cin = external global %"class.std::basic_istream", align 8
@_ZSt4cout = external global %"class.std::basic_ostream", align 8
@llvm.global_ctors = appending global [1 x { i32, void ()*, i8* }] [{ i32, void ()*, i8* } { i32 65535, void ()* @_GLOBAL__sub_I_1381.cpp, i8* null }]

declare void @_ZNSt8ios_base4InitC1Ev(%"class.std::ios_base::Init"* nonnull align 1 dereferenceable(1)) unnamed_addr #0

; Function Attrs: nounwind
declare void @_ZNSt8ios_base4InitD1Ev(%"class.std::ios_base::Init"* nonnull align 1 dereferenceable(1)) unnamed_addr #1

; Function Attrs: nofree nounwind
declare i32 @__cxa_atexit(void (i8*)*, i8*, i8*) local_unnamed_addr #2

; Function Attrs: mustprogress norecurse sspstrong uwtable
define dso_local i32 @main() local_unnamed_addr #3 {
  %1 = alloca [1000 x i32], align 16
  %2 = alloca i32, align 4
  %3 = bitcast [1000 x i32]* %1 to i8*
  call void @llvm.lifetime.start.p0i8(i64 4000, i8* nonnull %3) #7
  call void @llvm.memset.p0i8.i64(i8* noundef nonnull align 16 dereferenceable(4000) %3, i8 0, i64 4000, i1 false)
  %4 = bitcast i32* %2 to i8*
  call void @llvm.lifetime.start.p0i8(i64 4, i8* nonnull %4) #7
  %5 = getelementptr inbounds [1000 x i32], [1000 x i32]* %1, i64 0, i64 0
  store i32 1, i32* %5, align 16, !tbaa !5
  %6 = call nonnull align 8 dereferenceable(16) %"class.std::basic_istream"* @_ZNSirsERi(%"class.std::basic_istream"* nonnull align 8 dereferenceable(16) @_ZSt3cin, i32* nonnull align 4 dereferenceable(4) %2)
  %7 = load i32, i32* %2, align 4, !tbaa !5
  %8 = icmp slt i32 %7, 1
  br i1 %8, label %44, label %9

9:                                                ; preds = %0, %41
  %10 = phi i32 [ %42, %41 ], [ 1, %0 ]
  br label %11

11:                                               ; preds = %71, %9
  %12 = phi i64 [ 0, %9 ], [ %82, %71 ]
  %13 = getelementptr inbounds [1000 x i32], [1000 x i32]* %1, i64 0, i64 %12
  %14 = bitcast i32* %13 to <4 x i32>*
  %15 = load <4 x i32>, <4 x i32>* %14, align 16, !tbaa !5
  %16 = getelementptr inbounds i32, i32* %13, i64 4
  %17 = bitcast i32* %16 to <4 x i32>*
  %18 = load <4 x i32>, <4 x i32>* %17, align 16, !tbaa !5
  %19 = shl nsw <4 x i32> %15, <i32 1, i32 1, i32 1, i32 1>
  %20 = shl nsw <4 x i32> %18, <i32 1, i32 1, i32 1, i32 1>
  %21 = bitcast i32* %13 to <4 x i32>*
  store <4 x i32> %19, <4 x i32>* %21, align 16, !tbaa !5
  %22 = bitcast i32* %16 to <4 x i32>*
  store <4 x i32> %20, <4 x i32>* %22, align 16, !tbaa !5
  %23 = or i64 %12, 8
  %24 = icmp eq i64 %23, 1000
  br i1 %24, label %25, label %71, !llvm.loop !9

25:                                               ; preds = %11, %38
  %26 = phi i64 [ %39, %38 ], [ 0, %11 ]
  %27 = getelementptr inbounds [1000 x i32], [1000 x i32]* %1, i64 0, i64 %26
  %28 = load i32, i32* %27, align 4, !tbaa !5
  %29 = icmp sgt i32 %28, 9
  br i1 %29, label %32, label %30

30:                                               ; preds = %25
  %31 = add nuw nsw i64 %26, 1
  br label %38

32:                                               ; preds = %25
  %33 = urem i32 %28, 10
  store i32 %33, i32* %27, align 4, !tbaa !5
  %34 = add nuw nsw i64 %26, 1
  %35 = getelementptr inbounds [1000 x i32], [1000 x i32]* %1, i64 0, i64 %34
  %36 = load i32, i32* %35, align 4, !tbaa !5
  %37 = add nsw i32 %36, 1
  store i32 %37, i32* %35, align 4, !tbaa !5
  br label %38

38:                                               ; preds = %30, %32
  %39 = phi i64 [ %31, %30 ], [ %34, %32 ]
  %40 = icmp eq i64 %39, 1000
  br i1 %40, label %41, label %25, !llvm.loop !12

41:                                               ; preds = %38
  %42 = add nuw i32 %10, 1
  %43 = icmp eq i32 %10, %7
  br i1 %43, label %44, label %9, !llvm.loop !13

44:                                               ; preds = %41, %0
  br label %45

45:                                               ; preds = %101, %44
  %46 = phi i32 [ 999, %44 ], [ %102, %101 ]
  %47 = zext i32 %46 to i64
  %48 = getelementptr inbounds [1000 x i32], [1000 x i32]* %1, i64 0, i64 %47
  %49 = load i32, i32* %48, align 4, !tbaa !5
  %50 = icmp eq i32 %49, 0
  br i1 %50, label %51, label %57

51:                                               ; preds = %45
  %52 = add nsw i32 %46, -1
  %53 = zext i32 %52 to i64
  %54 = getelementptr inbounds [1000 x i32], [1000 x i32]* %1, i64 0, i64 %53
  %55 = load i32, i32* %54, align 4, !tbaa !5
  %56 = icmp eq i32 %55, 0
  br i1 %56, label %83, label %57

57:                                               ; preds = %95, %89, %83, %51, %45
  %58 = phi i32 [ %46, %45 ], [ %52, %51 ], [ %84, %83 ], [ %90, %89 ], [ %96, %95 ]
  %59 = icmp sgt i32 %58, -1
  br i1 %59, label %60, label %70

60:                                               ; preds = %101, %57
  %61 = phi i32 [ %58, %57 ], [ 0, %101 ]
  %62 = zext i32 %61 to i64
  br label %63

63:                                               ; preds = %60, %63
  %64 = phi i64 [ %62, %60 ], [ %68, %63 ]
  %65 = getelementptr inbounds [1000 x i32], [1000 x i32]* %1, i64 0, i64 %64
  %66 = load i32, i32* %65, align 4, !tbaa !5
  %67 = call nonnull align 8 dereferenceable(8) %"class.std::basic_ostream"* @_ZNSolsEi(%"class.std::basic_ostream"* nonnull align 8 dereferenceable(8) @_ZSt4cout, i32 %66)
  %68 = add nsw i64 %64, -1
  %69 = icmp sgt i64 %64, 0
  br i1 %69, label %63, label %70, !llvm.loop !14

70:                                               ; preds = %63, %57
  call void @llvm.lifetime.end.p0i8(i64 4, i8* nonnull %4) #7
  call void @llvm.lifetime.end.p0i8(i64 4000, i8* nonnull %3) #7
  ret i32 0

71:                                               ; preds = %11
  %72 = getelementptr inbounds [1000 x i32], [1000 x i32]* %1, i64 0, i64 %23
  %73 = bitcast i32* %72 to <4 x i32>*
  %74 = load <4 x i32>, <4 x i32>* %73, align 16, !tbaa !5
  %75 = getelementptr inbounds i32, i32* %72, i64 4
  %76 = bitcast i32* %75 to <4 x i32>*
  %77 = load <4 x i32>, <4 x i32>* %76, align 16, !tbaa !5
  %78 = shl nsw <4 x i32> %74, <i32 1, i32 1, i32 1, i32 1>
  %79 = shl nsw <4 x i32> %77, <i32 1, i32 1, i32 1, i32 1>
  %80 = bitcast i32* %72 to <4 x i32>*
  store <4 x i32> %78, <4 x i32>* %80, align 16, !tbaa !5
  %81 = bitcast i32* %75 to <4 x i32>*
  store <4 x i32> %79, <4 x i32>* %81, align 16, !tbaa !5
  %82 = add nuw nsw i64 %12, 16
  br label %11

83:                                               ; preds = %51
  %84 = add nsw i32 %46, -2
  %85 = zext i32 %84 to i64
  %86 = getelementptr inbounds [1000 x i32], [1000 x i32]* %1, i64 0, i64 %85
  %87 = load i32, i32* %86, align 4, !tbaa !5
  %88 = icmp eq i32 %87, 0
  br i1 %88, label %89, label %57

89:                                               ; preds = %83
  %90 = add nsw i32 %46, -3
  %91 = zext i32 %90 to i64
  %92 = getelementptr inbounds [1000 x i32], [1000 x i32]* %1, i64 0, i64 %91
  %93 = load i32, i32* %92, align 4, !tbaa !5
  %94 = icmp eq i32 %93, 0
  br i1 %94, label %95, label %57

95:                                               ; preds = %89
  %96 = add nsw i32 %46, -4
  %97 = zext i32 %96 to i64
  %98 = getelementptr inbounds [1000 x i32], [1000 x i32]* %1, i64 0, i64 %97
  %99 = load i32, i32* %98, align 4, !tbaa !5
  %100 = icmp eq i32 %99, 0
  br i1 %100, label %101, label %57

101:                                              ; preds = %95
  %102 = add nsw i32 %46, -5
  %103 = icmp eq i32 %96, 0
  br i1 %103, label %60, label %45, !llvm.loop !15
}

; Function Attrs: argmemonly mustprogress nofree nosync nounwind willreturn
declare void @llvm.lifetime.start.p0i8(i64 immarg, i8* nocapture) #4

; Function Attrs: argmemonly mustprogress nofree nounwind willreturn writeonly
declare void @llvm.memset.p0i8.i64(i8* nocapture writeonly, i8, i64, i1 immarg) #5

declare nonnull align 8 dereferenceable(16) %"class.std::basic_istream"* @_ZNSirsERi(%"class.std::basic_istream"* nonnull align 8 dereferenceable(16), i32* nonnull align 4 dereferenceable(4)) local_unnamed_addr #0

declare nonnull align 8 dereferenceable(8) %"class.std::basic_ostream"* @_ZNSolsEi(%"class.std::basic_ostream"* nonnull align 8 dereferenceable(8), i32) local_unnamed_addr #0

; Function Attrs: argmemonly mustprogress nofree nosync nounwind willreturn
declare void @llvm.lifetime.end.p0i8(i64 immarg, i8* nocapture) #4

; Function Attrs: sspstrong uwtable
define internal void @_GLOBAL__sub_I_1381.cpp() #6 section ".text.startup" {
  tail call void @_ZNSt8ios_base4InitC1Ev(%"class.std::ios_base::Init"* nonnull align 1 dereferenceable(1) @_ZStL8__ioinit)
  %1 = tail call i32 @__cxa_atexit(void (i8*)* bitcast (void (%"class.std::ios_base::Init"*)* @_ZNSt8ios_base4InitD1Ev to void (i8*)*), i8* getelementptr inbounds (%"class.std::ios_base::Init", %"class.std::ios_base::Init"* @_ZStL8__ioinit, i64 0, i32 0), i8* nonnull @__dso_handle) #7
  ret void
}


!llvm.module.flags = !{!0, !1, !2, !3}
!llvm.ident = !{!4}

!0 = !{i32 1, !"wchar_size", i32 4}
!1 = !{i32 7, !"PIC Level", i32 2}
!2 = !{i32 7, !"PIE Level", i32 2}
!3 = !{i32 7, !"uwtable", i32 1}
!4 = !{!"clang version 13.0.0"}
!5 = !{!6, !6, i64 0}
!6 = !{!"int", !7, i64 0}
!7 = !{!"omnipotent char", !8, i64 0}
!8 = !{!"Simple C++ TBAA"}
!9 = distinct !{!9, !10, !11}
!10 = !{!"llvm.loop.mustprogress"}
!11 = !{!"llvm.loop.isvectorized", i32 1}
!12 = distinct !{!12, !10}
!13 = distinct !{!13, !10}
!14 = distinct !{!14, !10}
!15 = distinct !{!15, !10}
